target datalayout = "e-m:e-p270:32:32-p271:32:32-p272:64:64-i64:64-i128:128-f80:128-n8:16:32:64-S128"
target triple = "x86_64-pc-linux-gnu"

%struct._lv_circle_buf_t = type { %struct._lv_array_t, i32, i32, i8 }
%struct._lv_array_t = type { ptr, i32, i32, i32, i8 }

; Function Attrs: nounwind uwtable
define internal void @circle_buf_prepare_empty(ptr noundef %0) #0 {
  %2 = alloca ptr, align 8
  %3 = alloca i32, align 4
  %4 = alloca i32, align 4
  store ptr %0, ptr %2, align 8, !tbaa !7
  call void @llvm.lifetime.start.p0(i64 4, ptr %3) #4
  %5 = load ptr, ptr %2, align 8, !tbaa !7
  %6 = getelementptr inbounds nuw %struct._lv_circle_buf_t, ptr %5, i32 0, i32 0
  %7 = call i32 @lv_array_capacity(ptr noundef %6)
  %8 = load ptr, ptr %2, align 8, !tbaa !7
  %9 = getelementptr inbounds nuw %struct._lv_circle_buf_t, ptr %8, i32 0, i32 0
  %10 = call i32 @lv_array_size(ptr noundef %9)
  %11 = sub i32 %7, %10
  store i32 %11, ptr %3, align 4, !tbaa !3
  call void @llvm.lifetime.start.p0(i64 4, ptr %4) #4
  store i32 0, ptr %4, align 4, !tbaa !3
  br label %12

12:                                               ; preds = %21, %1
  %13 = load i32, ptr %4, align 4, !tbaa !3
  %14 = load i32, ptr %3, align 4, !tbaa !3
  %15 = icmp ult i32 %13, %14
  br i1 %15, label %17, label %16

16:                                               ; preds = %12
  call void @llvm.lifetime.end.p0(i64 4, ptr %4) #4
  br label %24

17:                                               ; preds = %12
  %18 = load ptr, ptr %2, align 8, !tbaa !7
  %19 = getelementptr inbounds nuw %struct._lv_circle_buf_t, ptr %18, i32 0, i32 0
  %20 = call i32 @lv_array_push_back(ptr noundef %19, ptr noundef null)
  br label %21

21:                                               ; preds = %17
  %22 = load i32, ptr %4, align 4, !tbaa !3
  %23 = add i32 %22, 1
  store i32 %23, ptr %4, align 4, !tbaa !3
  br label %12, !llvm.loop !17

24:                                               ; preds = %16
  call void @llvm.lifetime.end.p0(i64 4, ptr %3) #4
  ret void
}

; Function Attrs: nounwind uwtable
define ptr @lv_circle_buf_create(i32 noundef %0, i32 noundef %1) #0 {
  %3 = alloca ptr, align 8
  %4 = alloca i32, align 4
  %5 = alloca i32, align 4
  %6 = alloca ptr, align 8
  %7 = alloca i32, align 4
  store i32 %0, ptr %4, align 4, !tbaa !3
  store i32 %1, ptr %5, align 4, !tbaa !3
  call void @llvm.lifetime.start.p0(i64 8, ptr %6) #4
  %8 = call ptr @lv_malloc(i64 noundef 40)
  store ptr %8, ptr %6, align 8, !tbaa !7
  br label %9

9:                                                ; preds = %2
  %10 = load ptr, ptr %6, align 8, !tbaa !7
  %11 = icmp ne ptr %10, null
  br i1 %11, label %18, label %12

12:                                               ; preds = %9
  br label %13

13:                                               ; preds = %12
  br label %14

14:                                               ; preds = %13
  br label %15

15:                                               ; preds = %14
  br label %16

16:                                               ; preds = %17, %15
  br label %17

17:                                               ; preds = %16
  br label %16

18:                                               ; preds = %9
  br label %19

19:                                               ; preds = %18
  br label %20

20:                                               ; preds = %19
  %21 = load ptr, ptr %6, align 8, !tbaa !7
  %22 = icmp eq ptr %21, null
  br i1 %22, label %23, label %24

23:                                               ; preds = %20
  store ptr null, ptr %3, align 8
  store i32 1, ptr %7, align 4
  br label %37

24:                                               ; preds = %20
  %25 = load ptr, ptr %6, align 8, !tbaa !7
  %26 = getelementptr inbounds nuw %struct._lv_circle_buf_t, ptr %25, i32 0, i32 0
  %27 = load i32, ptr %4, align 4, !tbaa !3
  %28 = load i32, ptr %5, align 4, !tbaa !3
  call void @lv_array_init(ptr noundef %26, i32 noundef %27, i32 noundef %28)
  %29 = load ptr, ptr %6, align 8, !tbaa !7
  %30 = getelementptr inbounds nuw %struct._lv_circle_buf_t, ptr %29, i32 0, i32 1
  store i32 0, ptr %30, align 8, !tbaa !10
  %31 = load ptr, ptr %6, align 8, !tbaa !7
  %32 = getelementptr inbounds nuw %struct._lv_circle_buf_t, ptr %31, i32 0, i32 2
  store i32 0, ptr %32, align 4, !tbaa !15
  %33 = load ptr, ptr %6, align 8, !tbaa !7
  %34 = getelementptr inbounds nuw %struct._lv_circle_buf_t, ptr %33, i32 0, i32 3
  store i8 1, ptr %34, align 8, !tbaa !16
  %35 = load ptr, ptr %6, align 8, !tbaa !7
  call void @circle_buf_prepare_empty(ptr noundef %35)
  %36 = load ptr, ptr %6, align 8, !tbaa !7
  store ptr %36, ptr %3, align 8
  store i32 1, ptr %7, align 4
  br label %37

37:                                               ; preds = %24, %23
  call void @llvm.lifetime.end.p0(i64 8, ptr %6) #4
  %38 = load ptr, ptr %3, align 8
  ret ptr %38
}