; Function Attrs: nounwind uwtable
define nonnull ptr @lv_circle_buf_create(i32 noundef %0, i32 noundef %1) local_unnamed_addr #0 {
  %3 = tail call ptr @lv_malloc(i64 noundef 40) #6
  %.not = icmp eq ptr %3, null
  br i1 %.not, label %.preheader, label %4

.preheader:                                       ; preds = %2, %.preheader
  br label %.preheader

4:                                                ; preds = %2
  tail call void @lv_array_init(ptr noundef nonnull %3, i32 noundef %0, i32 noundef %1) #6
  %5 = getelementptr inbounds nuw i8, ptr %3, i64 24
  store i32 0, ptr %5, align 8, !tbaa !3
  %6 = getelementptr inbounds nuw i8, ptr %3, i64 28
  store i32 0, ptr %6, align 4, !tbaa !12
  %7 = getelementptr inbounds nuw i8, ptr %3, i64 32
  store i8 1, ptr %7, align 8, !tbaa !13
  %8 = tail call i32 @lv_array_capacity(ptr noundef nonnull %3) #6
  %9 = tail call i32 @lv_array_size(ptr noundef nonnull %3) #6
  %10 = sub i32 %8, %9
  %.not.i = icmp eq i32 %8, %9
  br i1 %.not.i, label %circle_buf_prepare_empty.exit, label %.lr.ph.i

.lr.ph.i:                                         ; preds = %4, %.lr.ph.i
  %.05.i = phi i32 [ %12, %.lr.ph.i ], [ 0, %4 ]
  %11 = tail call i32 @lv_array_push_back(ptr noundef nonnull %3, ptr noundef null) #6
  %12 = add nuw i32 %.05.i, 1
  %exitcond.not.i = icmp eq i32 %12, %10
  br i1 %exitcond.not.i, label %circle_buf_prepare_empty.exit, label %.lr.ph.i, !llvm.loop !14

circle_buf_prepare_empty.exit:                    ; preds = %.lr.ph.i, %4
  ret ptr %3
}